target datalayout = "e-m:e-p270:32:32-p271:32:32-p272:64:64-i64:64-i128:128-f80:128-n8:16:32:64-S128"
target triple = "x86_64-pc-linux-gnu"

%struct.ucontext_t = type { i64, ptr, %struct.stack_t, %struct.mcontext_t, %struct.__sigset_t, %struct._libc_fpstate, [4 x i64] }
%struct.stack_t = type { ptr, i32, i64 }
%struct.mcontext_t = type { [23 x i64], ptr, [8 x i64] }
%struct.__sigset_t = type { [16 x i64] }
%struct._libc_fpstate = type { i16, i16, i16, i16, i64, i64, i32, i32, [8 x %struct._libc_fpxreg], [16 x %struct._libc_xmmreg], [24 x i32] }
%struct._libc_fpxreg = type { [4 x i16], i16, [3 x i16] }
%struct._libc_xmmreg = type { [4 x i32] }

; Function Attrs: mustprogress nounwind uwtable
define hidden noundef ptr @_ZN2os5Linux15ucontext_get_fpEPK10ucontext_t(ptr noundef %0) #1 align 2 {
  %2 = alloca ptr, align 8
  store ptr %0, ptr %2, align 8
  %3 = load ptr, ptr %2, align 8
  %4 = getelementptr inbounds %struct.ucontext_t, ptr %3, i32 0, i32 3
  %5 = getelementptr inbounds %struct.mcontext_t, ptr %4, i32 0, i32 0
  %6 = getelementptr inbounds [23 x i64], ptr %5, i64 0, i64 10
  %7 = load i64, ptr %6, align 8
  %8 = inttoptr i64 %7 to ptr
  ret ptr %8
}

; Function Attrs: mustprogress nounwind uwtable
define hidden noundef ptr @_ZN2os5Linux15ucontext_get_spEPK10ucontext_t(ptr noundef %0) #1 align 2 {
  %2 = alloca ptr, align 8
  store ptr %0, ptr %2, align 8
  %3 = load ptr, ptr %2, align 8
  %4 = getelementptr inbounds %struct.ucontext_t, ptr %3, i32 0, i32 3
  %5 = getelementptr inbounds %struct.mcontext_t, ptr %4, i32 0, i32 0
  %6 = getelementptr inbounds [23 x i64], ptr %5, i64 0, i64 15
  %7 = load i64, ptr %6, align 8
  %8 = inttoptr i64 %7 to ptr
  ret ptr %8
}

; Function Attrs: mustprogress nounwind uwtable
define hidden noundef ptr @_ZN2os5Posix15ucontext_get_pcEPK10ucontext_t(ptr noundef %0) #1 align 2 {
  %2 = alloca ptr, align 8
  store ptr %0, ptr %2, align 8
  %3 = load ptr, ptr %2, align 8
  %4 = getelementptr inbounds %struct.ucontext_t, ptr %3, i32 0, i32 3
  %5 = getelementptr inbounds %struct.mcontext_t, ptr %4, i32 0, i32 0
  %6 = getelementptr inbounds [23 x i64], ptr %5, i64 0, i64 16
  %7 = load i64, ptr %6, align 8
  %8 = inttoptr i64 %7 to ptr
  ret ptr %8
}

; Function Attrs: mustprogress nounwind uwtable
define hidden noundef ptr @_ZN2os24fetch_frame_from_contextEPKvPPlS3_(ptr noundef %0, ptr noundef %1, ptr noundef %2) #1 align 2 {
  %4 = alloca ptr, align 8
  %5 = alloca ptr, align 8
  %6 = alloca ptr, align 8
  %7 = alloca ptr, align 8
  %8 = alloca ptr, align 8
  store ptr %0, ptr %4, align 8
  store ptr %1, ptr %5, align 8
  store ptr %2, ptr %6, align 8
  %9 = load ptr, ptr %4, align 8
  store ptr %9, ptr %8, align 8
  %10 = load ptr, ptr %8, align 8
  %11 = icmp ne ptr %10, null
  br i1 %11, label %12, label %29

12:                                               ; preds = %3
  %13 = load ptr, ptr %8, align 8
  %14 = call noundef ptr @_ZN2os5Posix15ucontext_get_pcEPK10ucontext_t(ptr noundef %13)
  store ptr %14, ptr %7, align 8
  %15 = load ptr, ptr %5, align 8
  %16 = icmp ne ptr %15, null
  br i1 %16, label %17, label %21

17:                                               ; preds = %12
  %18 = load ptr, ptr %8, align 8
  %19 = call noundef ptr @_ZN2os5Linux15ucontext_get_spEPK10ucontext_t(ptr noundef %18)
  %20 = load ptr, ptr %5, align 8
  store ptr %19, ptr %20, align 8
  br label %21

21:                                               ; preds = %17, %12
  %22 = load ptr, ptr %6, align 8
  %23 = icmp ne ptr %22, null
  br i1 %23, label %24, label %28

24:                                               ; preds = %21
  %25 = load ptr, ptr %8, align 8
  %26 = call noundef ptr @_ZN2os5Linux15ucontext_get_fpEPK10ucontext_t(ptr noundef %25)
  %27 = load ptr, ptr %6, align 8
  store ptr %26, ptr %27, align 8
  br label %28

28:                                               ; preds = %24, %21
  br label %40

29:                                               ; preds = %3
  store ptr null, ptr %7, align 8
  %30 = load ptr, ptr %5, align 8
  %31 = icmp ne ptr %30, null
  br i1 %31, label %32, label %34

32:                                               ; preds = %29
  %33 = load ptr, ptr %5, align 8
  store ptr null, ptr %33, align 8
  br label %34

34:                                               ; preds = %32, %29
  %35 = load ptr, ptr %6, align 8
  %36 = icmp ne ptr %35, null
  br i1 %36, label %37, label %39

37:                                               ; preds = %34
  %38 = load ptr, ptr %6, align 8
  store ptr null, ptr %38, align 8
  br label %39

39:                                               ; preds = %37, %34
  br label %40

40:                                               ; preds = %39, %28
  %41 = load ptr, ptr %7, align 8
  ret ptr %41
}