; Function Attrs: mustprogress nofree norecurse nosync nounwind willreturn memory(argmem: readwrite) uwtable
define hidden noundef ptr @_ZN2os24fetch_frame_from_contextEPKvPPlS3_(ptr noundef readonly %0, ptr noundef writeonly %1, ptr noundef writeonly %2) local_unnamed_addr #4 align 2 {
  %.not = icmp eq ptr %0, null
  br i1 %.not, label %17, label %4

4:                                                ; preds = %3
  %5 = getelementptr inbounds i8, ptr %0, i64 168
  %6 = load i64, ptr %5, align 8
  %7 = inttoptr i64 %6 to ptr
  %.not20 = icmp eq ptr %1, null
  br i1 %.not20, label %12, label %8

8:                                                ; preds = %4
  %9 = getelementptr inbounds i8, ptr %0, i64 160
  %10 = load i64, ptr %9, align 8
  %11 = inttoptr i64 %10 to ptr
  store ptr %11, ptr %1, align 8
  br label %12

12:                                               ; preds = %8, %4
  %.not21 = icmp eq ptr %2, null
  br i1 %.not21, label %20, label %13

13:                                               ; preds = %12
  %14 = getelementptr inbounds i8, ptr %0, i64 120
  %15 = load i64, ptr %14, align 8
  %16 = inttoptr i64 %15 to ptr
  br label %.sink.split

17:                                               ; preds = %3
  %.not18 = icmp eq ptr %1, null
  br i1 %.not18, label %19, label %18

18:                                               ; preds = %17
  store ptr null, ptr %1, align 8
  br label %19

19:                                               ; preds = %18, %17
  %.not19 = icmp eq ptr %2, null
  br i1 %.not19, label %20, label %.sink.split

.sink.split:                                      ; preds = %19, %13
  %.sink = phi ptr [ %16, %13 ], [ null, %19 ]
  %.0.ph = phi ptr [ %7, %13 ], [ null, %19 ]
  store ptr %.sink, ptr %2, align 8
  br label %20

20:                                               ; preds = %.sink.split, %19, %12
  %.0 = phi ptr [ %7, %12 ], [ null, %19 ], [ %.0.ph, %.sink.split ]
  ret ptr %.0
}